target datalayout = "e-m:e-p270:32:32-p271:32:32-p272:64:64-i64:64-i128:128-f80:128-n8:16:32:64-S128"
target triple = "x86_64-unknown-linux-gnu"

%struct.BlockLimits = type { i32, i64, i32, i64, i32, i32, i32, i64, i32, i64, i64, i32, i8, i32, i32, i32, i32, i32, i32, i32 }
%struct.BlockDriverState = type { i32, i8, i8, i8, i8, i8, ptr, ptr, ptr, %struct.anon.1, i8, [4096 x i8], [4096 x i8], [4096 x i8], [16 x i8], ptr, [4096 x i8], %struct.BlockLimits, i32, i32, i32, i32, [32 x i8], %union.anon, %union.anon.2, %union.anon.3, i32, [16 x %struct.anon.4], ptr, %struct.anon.5, ptr, ptr, %struct.anon.6, ptr, ptr, i32, ptr, i64, i64, %struct.QemuMutex, %struct.anon.7, %struct.Stat64, i32, i32, i32, i32, i32, i32, %struct.QemuMutex, %struct.anon.8, %struct.CoQueue, i8, i32, i8, %struct.CoMutex, ptr, ptr }
%struct.anon.1 = type { ptr }
%union.anon = type { %struct.QTailQLink }
%struct.QTailQLink = type { ptr, ptr }
%union.anon.2 = type { %struct.QTailQLink }
%union.anon.3 = type { %struct.QTailQLink }
%struct.anon.4 = type { ptr }
%struct.anon.5 = type { ptr }
%struct.anon.6 = type { ptr }
%struct.anon.7 = type { ptr }
%struct.Stat64 = type { i64 }
%struct.QemuMutex = type { %union.pthread_mutex_t, i8 }
%union.pthread_mutex_t = type { %struct.__pthread_mutex_s }
%struct.__pthread_mutex_s = type { i32, i32, i32, i32, i32, i16, i16, %struct.__pthread_internal_list }
%struct.__pthread_internal_list = type { ptr, ptr }
%struct.anon.8 = type { ptr }
%struct.CoQueue = type { %struct.anon.9 }
%struct.anon.9 = type { ptr, ptr }
%struct.CoMutex = type { i32, ptr, %struct.anon.10, %struct.anon.10, i32, i32, ptr }
%struct.anon.10 = type { ptr }
%struct.BdrvTrackedRequest = type { ptr, i64, i64, i32, i8, i64, i64, %struct.anon.12, ptr, %struct.CoQueue, ptr }
%struct.anon.12 = type { ptr, ptr }

@.str.1 = private unnamed_addr constant [19 x i8] c"../qemu/block/io.c\00", align 1
@__func__.bdrv_make_request_serialising = private unnamed_addr constant [30 x i8] c"bdrv_make_request_serialising\00", align 1
@qemu_mutex_lock_func = external global ptr, align 8
@error_abort = external global ptr, align 8

; Function Attrs: nounwind sspstrong uwtable
define dso_local i32 @bdrv_check_request(i64 noundef %offset, i64 noundef %bytes, ptr noundef %errp) #0 {
entry:
  %offset.addr = alloca i64, align 8
  %bytes.addr = alloca i64, align 8
  %errp.addr = alloca ptr, align 8
  store i64 %offset, ptr %offset.addr, align 8
  store i64 %bytes, ptr %bytes.addr, align 8
  store ptr %errp, ptr %errp.addr, align 8
  %0 = load i64, ptr %offset.addr, align 8
  %1 = load i64, ptr %bytes.addr, align 8
  %2 = load ptr, ptr %errp.addr, align 8
  %call = call i32 @bdrv_check_qiov_request(i64 noundef %0, i64 noundef %1, ptr noundef null, i64 noundef 0, ptr noundef %2)
  ret i32 %call
}

; Function Attrs: nounwind sspstrong uwtable
define internal void @tracked_request_set_serialising(ptr noundef %req, i64 noundef %align) #0 {
entry:
  %req.addr = alloca ptr, align 8
  %align.addr = alloca i64, align 8
  %overlap_offset = alloca i64, align 8
  %overlap_bytes = alloca i64, align 8
  %.atomictmp = alloca i32, align 4
  %atomic-temp = alloca i32, align 4
  %_a25 = alloca i64, align 8
  %_b26 = alloca i64, align 8
  %tmp = alloca i64, align 8
  %_a27 = alloca i64, align 8
  %_b28 = alloca i64, align 8
  %tmp13 = alloca i64, align 8
  store ptr %req, ptr %req.addr, align 8
  store i64 %align, ptr %align.addr, align 8
  %0 = load ptr, ptr %req.addr, align 8
  %offset = getelementptr inbounds %struct.BdrvTrackedRequest, ptr %0, i32 0, i32 1
  %1 = load i64, ptr %offset, align 8
  %2 = load i64, ptr %align.addr, align 8
  %sub = sub i64 %2, 1
  %not = xor i64 %sub, -1
  %and = and i64 %1, %not
  store i64 %and, ptr %overlap_offset, align 8
  %3 = load ptr, ptr %req.addr, align 8
  %offset1 = getelementptr inbounds %struct.BdrvTrackedRequest, ptr %3, i32 0, i32 1
  %4 = load i64, ptr %offset1, align 8
  %5 = load ptr, ptr %req.addr, align 8
  %bytes = getelementptr inbounds %struct.BdrvTrackedRequest, ptr %5, i32 0, i32 2
  %6 = load i64, ptr %bytes, align 8
  %add = add i64 %4, %6
  %7 = load i64, ptr %align.addr, align 8
  %add2 = add i64 %add, %7
  %sub3 = sub i64 %add2, 1
  %8 = load i64, ptr %align.addr, align 8
  %sub4 = sub i64 0, %8
  %and5 = and i64 %sub3, %sub4
  %9 = load i64, ptr %overlap_offset, align 8
  %sub6 = sub i64 %and5, %9
  store i64 %sub6, ptr %overlap_bytes, align 8
  %10 = load ptr, ptr %req.addr, align 8
  %offset7 = getelementptr inbounds %struct.BdrvTrackedRequest, ptr %10, i32 0, i32 1
  %11 = load i64, ptr %offset7, align 8
  %12 = load ptr, ptr %req.addr, align 8
  %bytes8 = getelementptr inbounds %struct.BdrvTrackedRequest, ptr %12, i32 0, i32 2
  %13 = load i64, ptr %bytes8, align 8
  %call = call i32 @bdrv_check_request(i64 noundef %11, i64 noundef %13, ptr noundef @error_abort)
  %14 = load ptr, ptr %req.addr, align 8
  %serialising = getelementptr inbounds %struct.BdrvTrackedRequest, ptr %14, i32 0, i32 4
  %15 = load i8, ptr %serialising, align 4
  %tobool = trunc i8 %15 to i1
  br i1 %tobool, label %if.end, label %if.then

if.then:                                          ; preds = %entry
  %16 = load ptr, ptr %req.addr, align 8
  %bs = getelementptr inbounds %struct.BdrvTrackedRequest, ptr %16, i32 0, i32 0
  %17 = load ptr, ptr %bs, align 8
  %serialising_in_flight = getelementptr inbounds %struct.BlockDriverState, ptr %17, i32 0, i32 44
  store i32 1, ptr %.atomictmp, align 4
  %18 = load i32, ptr %.atomictmp, align 4
  %19 = atomicrmw add ptr %serialising_in_flight, i32 %18 seq_cst, align 8
  store i32 %19, ptr %atomic-temp, align 4
  %20 = load ptr, ptr %req.addr, align 8
  %serialising9 = getelementptr inbounds %struct.BdrvTrackedRequest, ptr %20, i32 0, i32 4
  store i8 1, ptr %serialising9, align 4
  br label %if.end

if.end:                                           ; preds = %if.then, %entry
  %21 = load ptr, ptr %req.addr, align 8
  %overlap_offset10 = getelementptr inbounds %struct.BdrvTrackedRequest, ptr %21, i32 0, i32 5
  %22 = load i64, ptr %overlap_offset10, align 8
  store i64 %22, ptr %_a25, align 8
  %23 = load i64, ptr %overlap_offset, align 8
  store i64 %23, ptr %_b26, align 8
  %24 = load i64, ptr %_a25, align 8
  %25 = load i64, ptr %_b26, align 8
  %cmp = icmp slt i64 %24, %25
  br i1 %cmp, label %cond.true, label %cond.false

cond.true:                                        ; preds = %if.end
  %26 = load i64, ptr %_a25, align 8
  br label %cond.end

cond.false:                                       ; preds = %if.end
  %27 = load i64, ptr %_b26, align 8
  br label %cond.end

cond.end:                                         ; preds = %cond.false, %cond.true
  %cond = phi i64 [ %26, %cond.true ], [ %27, %cond.false ]
  store i64 %cond, ptr %tmp, align 8
  %28 = load i64, ptr %tmp, align 8
  %29 = load ptr, ptr %req.addr, align 8
  %overlap_offset11 = getelementptr inbounds %struct.BdrvTrackedRequest, ptr %29, i32 0, i32 5
  store i64 %28, ptr %overlap_offset11, align 8
  %30 = load ptr, ptr %req.addr, align 8
  %overlap_bytes12 = getelementptr inbounds %struct.BdrvTrackedRequest, ptr %30, i32 0, i32 6
  %31 = load i64, ptr %overlap_bytes12, align 8
  store i64 %31, ptr %_a27, align 8
  %32 = load i64, ptr %overlap_bytes, align 8
  store i64 %32, ptr %_b28, align 8
  %33 = load i64, ptr %_a27, align 8
  %34 = load i64, ptr %_b28, align 8
  %cmp14 = icmp sgt i64 %33, %34
  br i1 %cmp14, label %cond.true15, label %cond.false16

cond.true15:                                      ; preds = %cond.end
  %35 = load i64, ptr %_a27, align 8
  br label %cond.end17

cond.false16:                                     ; preds = %cond.end
  %36 = load i64, ptr %_b28, align 8
  br label %cond.end17

cond.end17:                                       ; preds = %cond.false16, %cond.true15
  %cond18 = phi i64 [ %35, %cond.true15 ], [ %36, %cond.false16 ]
  store i64 %cond18, ptr %tmp13, align 8
  %37 = load i64, ptr %tmp13, align 8
  %38 = load ptr, ptr %req.addr, align 8
  %overlap_bytes19 = getelementptr inbounds %struct.BdrvTrackedRequest, ptr %38, i32 0, i32 6
  store i64 %37, ptr %overlap_bytes19, align 8
  ret void
}

; Function Attrs: nounwind sspstrong uwtable
define dso_local void @bdrv_make_request_serialising(ptr noundef %req, i64 noundef %align) #0 {
entry:
  %req.addr = alloca ptr, align 8
  %align.addr = alloca i64, align 8
  %_f = alloca ptr, align 8
  %tmp = alloca ptr, align 8
  %atomic-temp = alloca ptr, align 8
  store ptr %req, ptr %req.addr, align 8
  store i64 %align, ptr %align.addr, align 8
  br label %do.body

do.body:                                          ; preds = %entry
  br label %do.end

do.end:                                           ; preds = %do.body
  br label %while.cond

while.cond:                                       ; preds = %do.end2, %do.end
  br i1 false, label %while.body, label %while.end

while.body:                                       ; preds = %while.cond
  br label %do.body1

do.body1:                                         ; preds = %while.body
  call void @g_assertion_message_expr(ptr noundef null, ptr noundef @.str.1, i32 noundef 833, ptr noundef @__func__.bdrv_make_request_serialising, ptr noundef null) #13
  unreachable

do.end2:                                          ; No predecessors!
  br label %while.cond

while.end:                                        ; preds = %while.cond
  %0 = load atomic i64, ptr @qemu_mutex_lock_func monotonic, align 8
  store i64 %0, ptr %atomic-temp, align 8
  %1 = load ptr, ptr %atomic-temp, align 8
  store ptr %1, ptr %tmp, align 8
  %2 = load ptr, ptr %tmp, align 8
  store ptr %2, ptr %_f, align 8
  %3 = load ptr, ptr %_f, align 8
  %4 = load ptr, ptr %req.addr, align 8
  %bs = getelementptr inbounds %struct.BdrvTrackedRequest, ptr %4, i32 0, i32 0
  %5 = load ptr, ptr %bs, align 8
  %reqs_lock = getelementptr inbounds %struct.BlockDriverState, ptr %5, i32 0, i32 48
  call void %3(ptr noundef %reqs_lock, ptr noundef @.str.1, i32 noundef 833)
  %6 = load ptr, ptr %req.addr, align 8
  %7 = load i64, ptr %align.addr, align 8
  call void @tracked_request_set_serialising(ptr noundef %6, i64 noundef %7)
  %8 = load ptr, ptr %req.addr, align 8
  call void @bdrv_wait_serialising_requests_locked(ptr noundef %8)
  %9 = load ptr, ptr %req.addr, align 8
  %bs3 = getelementptr inbounds %struct.BdrvTrackedRequest, ptr %9, i32 0, i32 0
  %10 = load ptr, ptr %bs3, align 8
  %reqs_lock4 = getelementptr inbounds %struct.BlockDriverState, ptr %10, i32 0, i32 48
  call void @qemu_mutex_unlock_impl(ptr noundef %reqs_lock4, ptr noundef @.str.1, i32 noundef 838)
  ret void
}