; Function Attrs: nounwind sspstrong uwtable
define dso_local void @bdrv_make_request_serialising(ptr noundef %req, i64 noundef %align) #0 {
entry:
  %0 = load atomic i64, ptr @qemu_mutex_lock_func monotonic, align 8
  %1 = inttoptr i64 %0 to ptr
  %2 = load ptr, ptr %req, align 8
  %reqs_lock = getelementptr inbounds nuw i8, ptr %2, i64 16992
  tail call void %1(ptr noundef nonnull %reqs_lock, ptr noundef nonnull @.str.1, i32 noundef 833) #15
  %offset.i = getelementptr inbounds nuw i8, ptr %req, i64 8
  %3 = load i64, ptr %offset.i, align 8
  %bytes.i = getelementptr inbounds nuw i8, ptr %req, i64 16
  %4 = load i64, ptr %bytes.i, align 8
  %call.i.i = tail call range(i32 -5, 1) i32 @bdrv_check_qiov_request(i64 noundef %3, i64 noundef %4, ptr noundef null, i64 noundef 0, ptr noundef nonnull @error_abort)
  %serialising.i = getelementptr inbounds nuw i8, ptr %req, i64 28
  %5 = load i8, ptr %serialising.i, align 4
  %tobool.i = trunc i8 %5 to i1
  br i1 %tobool.i, label %tracked_request_set_serialising.exit, label %if.then.i

if.then.i:                                        ; preds = %entry
  %6 = load ptr, ptr %req, align 8
  %serialising_in_flight.i = getelementptr inbounds nuw i8, ptr %6, i64 16976
  %7 = atomicrmw add ptr %serialising_in_flight.i, i32 1 seq_cst, align 8
  store i8 1, ptr %serialising.i, align 4
  br label %tracked_request_set_serialising.exit

tracked_request_set_serialising.exit:             ; preds = %entry, %if.then.i
  %add.i = add i64 %align, -1
  %add2.i = add i64 %add.i, %3
  %sub3.i = add i64 %add2.i, %4
  %sub4.i = sub i64 0, %align
  %and5.i = and i64 %sub3.i, %sub4.i
  %and.i = and i64 %3, %sub4.i
  %sub6.i = sub i64 %and5.i, %and.i
  %overlap_offset10.i = getelementptr inbounds nuw i8, ptr %req, i64 32
  %8 = load i64, ptr %overlap_offset10.i, align 8
  %cond.i = tail call i64 @llvm.smin.i64(i64 %8, i64 %and.i)
  store i64 %cond.i, ptr %overlap_offset10.i, align 8
  %overlap_bytes12.i = getelementptr inbounds nuw i8, ptr %req, i64 40
  %9 = load i64, ptr %overlap_bytes12.i, align 8
  %cond18.i = tail call i64 @llvm.smax.i64(i64 %9, i64 %sub6.i)
  store i64 %cond18.i, ptr %overlap_bytes12.i, align 8
  tail call void @bdrv_wait_serialising_requests_locked(ptr noundef nonnull %req)
  %10 = load ptr, ptr %req, align 8
  %reqs_lock4 = getelementptr inbounds nuw i8, ptr %10, i64 16992
  tail call void @qemu_mutex_unlock_impl(ptr noundef nonnull %reqs_lock4, ptr noundef nonnull @.str.1, i32 noundef 838) #15
  ret void
}